target datalayout = "e-m:e-p270:32:32-p271:32:32-p272:64:64-i64:64-i128:128-f80:128-n8:16:32:64-S128"
target triple = "x86_64-pc-linux-gnu"

%"class.std::__cxx11::basic_string" = type { %"struct.std::__cxx11::basic_string<char>::_Alloc_hider", i64, %union.anon }
%"struct.std::__cxx11::basic_string<char>::_Alloc_hider" = type { ptr }
%union.anon = type { i64, [8 x i8] }
%"struct.llvm::LLVMTargetMachineOptions" = type <{ %"class.std::__cxx11::basic_string", %"class.std::__cxx11::basic_string", %"class.std::__cxx11::basic_string", i32, %"class.std::optional", %"class.std::optional.0", i8, [3 x i8] }>
%"class.std::optional" = type { %"struct.std::_Optional_base" }
%"struct.std::_Optional_base" = type { %"struct.std::_Optional_payload" }
%"struct.std::_Optional_payload" = type { %"struct.std::_Optional_payload_base.base", [3 x i8] }
%"struct.std::_Optional_payload_base.base" = type <{ %"union.std::_Optional_payload_base<llvm::Reloc::Model>::_Storage", i8 }>
%"union.std::_Optional_payload_base<llvm::Reloc::Model>::_Storage" = type { i32 }
%"class.std::optional.0" = type { %"struct.std::_Optional_base.1" }
%"struct.std::_Optional_base.1" = type { %"struct.std::_Optional_payload.3" }
%"struct.std::_Optional_payload.3" = type { %"struct.std::_Optional_payload_base.base.5", [3 x i8] }
%"struct.std::_Optional_payload_base.base.5" = type <{ %"union.std::_Optional_payload_base<llvm::CodeModel::Model>::_Storage", i8 }>
%"union.std::_Optional_payload_base<llvm::CodeModel::Model>::_Storage" = type { i32 }

; Function Attrs: mustprogress nounwind uwtable
define linkonce_odr hidden noundef ptr @_Z6unwrapP30LLVMOpaqueTargetMachineOptions(ptr noundef %0) #0 comdat {
  %2 = alloca ptr, align 8
  store ptr %0, ptr %2, align 8
  %3 = load ptr, ptr %2, align 8
  ret ptr %3
}

; Function Attrs: mustprogress nounwind uwtable
define dso_local void @LLVMTargetMachineOptionsSetCodeGenOptLevel(ptr noundef %0, i32 noundef %1) #0 {
  %3 = alloca ptr, align 8
  %4 = alloca i32, align 4
  %5 = alloca i32, align 4
  store ptr %0, ptr %3, align 8
  store i32 %1, ptr %4, align 4
  %6 = load i32, ptr %4, align 4
  switch i32 %6, label %11 [
    i32 0, label %7
    i32 1, label %8
    i32 3, label %9
    i32 2, label %10
  ]

7:                                                ; preds = %2
  store i32 0, ptr %5, align 4
  br label %11

8:                                                ; preds = %2
  store i32 1, ptr %5, align 4
  br label %11

9:                                                ; preds = %2
  store i32 3, ptr %5, align 4
  br label %11

10:                                               ; preds = %2
  store i32 2, ptr %5, align 4
  br label %11

11:                                               ; preds = %10, %9, %8, %7, %2
  %12 = load i32, ptr %5, align 4
  %13 = load ptr, ptr %3, align 8
  %14 = call noundef ptr @_Z6unwrapP30LLVMOpaqueTargetMachineOptions(ptr noundef %13)
  %15 = getelementptr inbounds nuw %"struct.llvm::LLVMTargetMachineOptions", ptr %14, i32 0, i32 3
  store i32 %12, ptr %15, align 8
  ret void
}