; Function Attrs: mustprogress nofree norecurse nosync nounwind willreturn memory(argmem: write) uwtable
define dso_local void @LLVMTargetMachineOptionsSetCodeGenOptLevel(ptr nocapture noundef writeonly %0, i32 noundef %1) local_unnamed_addr #8 {
switch.lookup:
  %switch.tableidx = add i32 %1, -1
  %2 = icmp ult i32 %switch.tableidx, 3
  %spec.select = select i1 %2, i32 %1, i32 0
  %3 = getelementptr inbounds nuw i8, ptr %0, i64 96
  store i32 %spec.select, ptr %3, align 8
  ret void
}